; ModuleID = '32/2087.c'
source_filename = "32/2087.c"
target datalayout = "e-m:e-p270:32:32-p271:32:32-p272:64:64-i64:64-f80:128-n8:16:32:64-S128"
target triple = "x86_64-pc-linux-gnu"

@.str = private unnamed_addr constant [3 x i8] c"%d\00", align 1
@a1 = common dso_local global [100 x i32] zeroinitializer, align 16
@a2 = common dso_local global [100 x i32] zeroinitializer, align 16
@s1 = common dso_local global [101 x i8] zeroinitializer, align 16
@s2 = common dso_local global [101 x i8] zeroinitializer, align 16
@.str.1 = private unnamed_addr constant [2 x i8] c"\0A\00", align 1

; Function Attrs: noinline nounwind uwtable
define dso_local i32 @main() #0 {
  %1 = alloca i32, align 4
  %2 = alloca i32, align 4
  %3 = alloca i32, align 4
  %4 = alloca i32, align 4
  %5 = alloca i32, align 4
  %6 = alloca i32, align 4
  %7 = alloca i32, align 4
  %8 = alloca i32, align 4
  store i32 0, i32* %1, align 4
  %9 = call i32 (i8*, ...) @__isoc99_scanf(i8* getelementptr inbounds ([3 x i8], [3 x i8]* @.str, i64 0, i64 0), i32* %2)
  store i32 1, i32* %3, align 4
  br label %10

10:                                               ; preds = %144, %0
  %11 = load i32, i32* %3, align 4
  %12 = load i32, i32* %2, align 4
  %13 = icmp sle i32 %11, %12
  br i1 %13, label %14, label %147

14:                                               ; preds = %10
  %15 = call i32 @getchar()
  call void @llvm.memset.p0i8.i64(i8* align 16 bitcast ([100 x i32]* @a1 to i8*), i8 0, i64 400, i1 false)
  call void @llvm.memset.p0i8.i64(i8* align 16 bitcast ([100 x i32]* @a2 to i8*), i8 0, i64 400, i1 false)
  %16 = call i32 (i8*, ...) bitcast (i32 (...)* @gets to i32 (i8*, ...)*)(i8* getelementptr inbounds ([101 x i8], [101 x i8]* @s1, i64 0, i64 0))
  %17 = call i32 (i8*, ...) bitcast (i32 (...)* @gets to i32 (i8*, ...)*)(i8* getelementptr inbounds ([101 x i8], [101 x i8]* @s2, i64 0, i64 0))
  store i32 0, i32* %4, align 4
  %18 = call i64 @strlen(i8* getelementptr inbounds ([101 x i8], [101 x i8]* @s1, i64 0, i64 0)) #4
  %19 = trunc i64 %18 to i32
  store i32 %19, i32* %7, align 4
  %20 = load i32, i32* %7, align 4
  %21 = sub nsw i32 %20, 1
  store i32 %21, i32* %5, align 4
  br label %22

22:                                               ; preds = %36, %14
  %23 = load i32, i32* %5, align 4
  %24 = icmp sge i32 %23, 0
  br i1 %24, label %25, label %39

25:                                               ; preds = %22
  %26 = load i32, i32* %5, align 4
  %27 = sext i32 %26 to i64
  %28 = getelementptr inbounds [101 x i8], [101 x i8]* @s1, i64 0, i64 %27
  %29 = load i8, i8* %28, align 1
  %30 = sext i8 %29 to i32
  %31 = sub nsw i32 %30, 48
  %32 = load i32, i32* %4, align 4
  %33 = add nsw i32 %32, 1
  store i32 %33, i32* %4, align 4
  %34 = sext i32 %32 to i64
  %35 = getelementptr inbounds [100 x i32], [100 x i32]* @a1, i64 0, i64 %34
  store i32 %31, i32* %35, align 4
  br label %36

36:                                               ; preds = %25
  %37 = load i32, i32* %5, align 4
  %38 = add nsw i32 %37, -1
  store i32 %38, i32* %5, align 4
  br label %22

39:                                               ; preds = %22
  store i32 0, i32* %4, align 4
  %40 = call i64 @strlen(i8* getelementptr inbounds ([101 x i8], [101 x i8]* @s2, i64 0, i64 0)) #4
  %41 = trunc i64 %40 to i32
  store i32 %41, i32* %8, align 4
  %42 = load i32, i32* %8, align 4
  %43 = sub nsw i32 %42, 1
  store i32 %43, i32* %5, align 4
  br label %44

44:                                               ; preds = %58, %39
  %45 = load i32, i32* %5, align 4
  %46 = icmp sge i32 %45, 0
  br i1 %46, label %47, label %61

47:                                               ; preds = %44
  %48 = load i32, i32* %5, align 4
  %49 = sext i32 %48 to i64
  %50 = getelementptr inbounds [101 x i8], [101 x i8]* @s2, i64 0, i64 %49
  %51 = load i8, i8* %50, align 1
  %52 = sext i8 %51 to i32
  %53 = sub nsw i32 %52, 48
  %54 = load i32, i32* %4, align 4
  %55 = add nsw i32 %54, 1
  store i32 %55, i32* %4, align 4
  %56 = sext i32 %54 to i64
  %57 = getelementptr inbounds [100 x i32], [100 x i32]* @a2, i64 0, i64 %56
  store i32 %53, i32* %57, align 4
  br label %58

58:                                               ; preds = %47
  %59 = load i32, i32* %5, align 4
  %60 = add nsw i32 %59, -1
  store i32 %60, i32* %5, align 4
  br label %44

61:                                               ; preds = %44
  store i32 0, i32* %4, align 4
  br label %62

62:                                               ; preds = %107, %61
  %63 = load i32, i32* %4, align 4
  %64 = load i32, i32* %8, align 4
  %65 = icmp slt i32 %63, %64
  br i1 %65, label %66, label %110

66:                                               ; preds = %62
  %67 = load i32, i32* %4, align 4
  %68 = sext i32 %67 to i64
  %69 = getelementptr inbounds [100 x i32], [100 x i32]* @a1, i64 0, i64 %68
  %70 = load i32, i32* %69, align 4
  %71 = load i32, i32* %4, align 4
  %72 = sext i32 %71 to i64
  %73 = getelementptr inbounds [100 x i32], [100 x i32]* @a2, i64 0, i64 %72
  %74 = load i32, i32* %73, align 4
  %75 = icmp sge i32 %70, %74
  br i1 %75, label %76, label %86

76:                                               ; preds = %66
  %77 = load i32, i32* %4, align 4
  %78 = sext i32 %77 to i64
  %79 = getelementptr inbounds [100 x i32], [100 x i32]* @a2, i64 0, i64 %78
  %80 = load i32, i32* %79, align 4
  %81 = load i32, i32* %4, align 4
  %82 = sext i32 %81 to i64
  %83 = getelementptr inbounds [100 x i32], [100 x i32]* @a1, i64 0, i64 %82
  %84 = load i32, i32* %83, align 4
  %85 = sub nsw i32 %84, %80
  store i32 %85, i32* %83, align 4
  br label %106

86:                                               ; preds = %66
  %87 = load i32, i32* %4, align 4
  %88 = sext i32 %87 to i64
  %89 = getelementptr inbounds [100 x i32], [100 x i32]* @a1, i64 0, i64 %88
  %90 = load i32, i32* %89, align 4
  %91 = add nsw i32 %90, 10
  %92 = load i32, i32* %4, align 4
  %93 = sext i32 %92 to i64
  %94 = getelementptr inbounds [100 x i32], [100 x i32]* @a2, i64 0, i64 %93
  %95 = load i32, i32* %94, align 4
  %96 = sub nsw i32 %91, %95
  %97 = load i32, i32* %4, align 4
  %98 = sext i32 %97 to i64
  %99 = getelementptr inbounds [100 x i32], [100 x i32]* @a1, i64 0, i64 %98
  store i32 %96, i32* %99, align 4
  %100 = load i32, i32* %4, align 4
  %101 = add nsw i32 %100, 1
  %102 = sext i32 %101 to i64
  %103 = getelementptr inbounds [100 x i32], [100 x i32]* @a1, i64 0, i64 %102
  %104 = load i32, i32* %103, align 4
  %105 = add nsw i32 %104, -1
  store i32 %105, i32* %103, align 4
  br label %106

106:                                              ; preds = %86, %76
  br label %107

107:                                              ; preds = %106
  %108 = load i32, i32* %4, align 4
  %109 = add nsw i32 %108, 1
  store i32 %109, i32* %4, align 4
  br label %62

110:                                              ; preds = %62
  %111 = load i32, i32* %7, align 4
  %112 = sub nsw i32 %111, 1
  store i32 %112, i32* %4, align 4
  br label %113

113:                                              ; preds = %125, %110
  %114 = load i32, i32* %4, align 4
  %115 = icmp sge i32 %114, 0
  br i1 %115, label %116, label %128

116:                                              ; preds = %113
  %117 = load i32, i32* %4, align 4
  %118 = sext i32 %117 to i64
  %119 = getelementptr inbounds [100 x i32], [100 x i32]* @a1, i64 0, i64 %118
  %120 = load i32, i32* %119, align 4
  %121 = icmp sgt i32 %120, 0
  br i1 %121, label %122, label %124

122:                                              ; preds = %116
  %123 = load i32, i32* %4, align 4
  store i32 %123, i32* %6, align 4
  br label %128

124:                                              ; preds = %116
  br label %125

125:                                              ; preds = %124
  %126 = load i32, i32* %4, align 4
  %127 = add nsw i32 %126, -1
  store i32 %127, i32* %4, align 4
  br label %113

128:                                              ; preds = %122, %113
  %129 = load i32, i32* %6, align 4
  store i32 %129, i32* %4, align 4
  br label %130

130:                                              ; preds = %139, %128
  %131 = load i32, i32* %4, align 4
  %132 = icmp sge i32 %131, 0
  br i1 %132, label %133, label %142

133:                                              ; preds = %130
  %134 = load i32, i32* %4, align 4
  %135 = sext i32 %134 to i64
  %136 = getelementptr inbounds [100 x i32], [100 x i32]* @a1, i64 0, i64 %135
  %137 = load i32, i32* %136, align 4
  %138 = call i32 (i8*, ...) @printf(i8* getelementptr inbounds ([3 x i8], [3 x i8]* @.str, i64 0, i64 0), i32 %137)
  br label %139

139:                                              ; preds = %133
  %140 = load i32, i32* %4, align 4
  %141 = add nsw i32 %140, -1
  store i32 %141, i32* %4, align 4
  br label %130

142:                                              ; preds = %130
  %143 = call i32 (i8*, ...) @printf(i8* getelementptr inbounds ([2 x i8], [2 x i8]* @.str.1, i64 0, i64 0))
  br label %144

144:                                              ; preds = %142
  %145 = load i32, i32* %3, align 4
  %146 = add nsw i32 %145, 1
  store i32 %146, i32* %3, align 4
  br label %10

147:                                              ; preds = %10
  ret i32 0
}

declare dso_local i32 @__isoc99_scanf(i8*, ...) #1

declare dso_local i32 @getchar() #1

; Function Attrs: argmemonly nounwind willreturn
declare void @llvm.memset.p0i8.i64(i8* nocapture writeonly, i8, i64, i1 immarg) #2

declare dso_local i32 @gets(...) #1

; Function Attrs: nounwind readonly
declare dso_local i64 @strlen(i8*) #3

declare dso_local i32 @printf(i8*, ...) #1


!llvm.module.flags = !{!0}
!llvm.ident = !{!1}

!0 = !{i32 1, !"wchar_size", i32 4}
!1 = !{!"clang version 10.0.0-4ubuntu1 "}
